
TEST1.elf:     file format elf32-avr

Sections:
Idx Name          Size      VMA       LMA       File off  Algn
  0 .data         00000000  00800100  00800100  000001b0  2**0
                  CONTENTS, ALLOC, LOAD, DATA
  1 .text         0000015c  00000000  00000000  00000054  2**1
                  CONTENTS, ALLOC, LOAD, READONLY, CODE
  2 .comment      00000030  00000000  00000000  000001b0  2**0
                  CONTENTS, READONLY
  3 .note.gnu.avr.deviceinfo 0000003c  00000000  00000000  000001e0  2**2
                  CONTENTS, READONLY
  4 .debug_aranges 00000020  00000000  00000000  0000021c  2**0
                  CONTENTS, READONLY, DEBUGGING
  5 .debug_info   00000a1a  00000000  00000000  0000023c  2**0
                  CONTENTS, READONLY, DEBUGGING
  6 .debug_abbrev 00000800  00000000  00000000  00000c56  2**0
                  CONTENTS, READONLY, DEBUGGING
  7 .debug_line   00000379  00000000  00000000  00001456  2**0
                  CONTENTS, READONLY, DEBUGGING
  8 .debug_frame  00000024  00000000  00000000  000017d0  2**2
                  CONTENTS, READONLY, DEBUGGING
  9 .debug_str    000003df  00000000  00000000  000017f4  2**0
                  CONTENTS, READONLY, DEBUGGING
 10 .debug_loc    000001f8  00000000  00000000  00001bd3  2**0
                  CONTENTS, READONLY, DEBUGGING
 11 .debug_ranges 00000010  00000000  00000000  00001dcb  2**0
                  CONTENTS, READONLY, DEBUGGING

Disassembly of section .text:

00000000 <__vectors>:
   0:	45 c0       	rjmp	.+138    	; 0x8c <__ctors_end>
   2:	00 00       	nop
   4:	4b c0       	rjmp	.+150    	; 0x9c <__bad_interrupt>
   6:	00 00       	nop
   8:	49 c0       	rjmp	.+146    	; 0x9c <__bad_interrupt>
   a:	00 00       	nop
   c:	47 c0       	rjmp	.+142    	; 0x9c <__bad_interrupt>
   e:	00 00       	nop
  10:	45 c0       	rjmp	.+138    	; 0x9c <__bad_interrupt>
  12:	00 00       	nop
  14:	43 c0       	rjmp	.+134    	; 0x9c <__bad_interrupt>
  16:	00 00       	nop
  18:	41 c0       	rjmp	.+130    	; 0x9c <__bad_interrupt>
  1a:	00 00       	nop
  1c:	3f c0       	rjmp	.+126    	; 0x9c <__bad_interrupt>
  1e:	00 00       	nop
  20:	3d c0       	rjmp	.+122    	; 0x9c <__bad_interrupt>
  22:	00 00       	nop
  24:	3b c0       	rjmp	.+118    	; 0x9c <__bad_interrupt>
  26:	00 00       	nop
  28:	39 c0       	rjmp	.+114    	; 0x9c <__bad_interrupt>
  2a:	00 00       	nop
  2c:	37 c0       	rjmp	.+110    	; 0x9c <__bad_interrupt>
  2e:	00 00       	nop
  30:	35 c0       	rjmp	.+106    	; 0x9c <__bad_interrupt>
  32:	00 00       	nop
  34:	33 c0       	rjmp	.+102    	; 0x9c <__bad_interrupt>
  36:	00 00       	nop
  38:	31 c0       	rjmp	.+98     	; 0x9c <__bad_interrupt>
  3a:	00 00       	nop
  3c:	2f c0       	rjmp	.+94     	; 0x9c <__bad_interrupt>
  3e:	00 00       	nop
  40:	2d c0       	rjmp	.+90     	; 0x9c <__bad_interrupt>
  42:	00 00       	nop
  44:	2b c0       	rjmp	.+86     	; 0x9c <__bad_interrupt>
  46:	00 00       	nop
  48:	29 c0       	rjmp	.+82     	; 0x9c <__bad_interrupt>
  4a:	00 00       	nop
  4c:	27 c0       	rjmp	.+78     	; 0x9c <__bad_interrupt>
  4e:	00 00       	nop
  50:	25 c0       	rjmp	.+74     	; 0x9c <__bad_interrupt>
  52:	00 00       	nop
  54:	23 c0       	rjmp	.+70     	; 0x9c <__bad_interrupt>
  56:	00 00       	nop
  58:	21 c0       	rjmp	.+66     	; 0x9c <__bad_interrupt>
  5a:	00 00       	nop
  5c:	1f c0       	rjmp	.+62     	; 0x9c <__bad_interrupt>
  5e:	00 00       	nop
  60:	1d c0       	rjmp	.+58     	; 0x9c <__bad_interrupt>
  62:	00 00       	nop
  64:	1b c0       	rjmp	.+54     	; 0x9c <__bad_interrupt>
  66:	00 00       	nop
  68:	19 c0       	rjmp	.+50     	; 0x9c <__bad_interrupt>
  6a:	00 00       	nop
  6c:	17 c0       	rjmp	.+46     	; 0x9c <__bad_interrupt>
  6e:	00 00       	nop
  70:	15 c0       	rjmp	.+42     	; 0x9c <__bad_interrupt>
  72:	00 00       	nop
  74:	13 c0       	rjmp	.+38     	; 0x9c <__bad_interrupt>
  76:	00 00       	nop
  78:	11 c0       	rjmp	.+34     	; 0x9c <__bad_interrupt>
  7a:	00 00       	nop
  7c:	0f c0       	rjmp	.+30     	; 0x9c <__bad_interrupt>
  7e:	00 00       	nop
  80:	0d c0       	rjmp	.+26     	; 0x9c <__bad_interrupt>
  82:	00 00       	nop
  84:	0b c0       	rjmp	.+22     	; 0x9c <__bad_interrupt>
  86:	00 00       	nop
  88:	09 c0       	rjmp	.+18     	; 0x9c <__bad_interrupt>
	...

0000008c <__ctors_end>:
  8c:	11 24       	eor	r1, r1
  8e:	1f be       	out	0x3f, r1	; 63
  90:	cf ef       	ldi	r28, 0xFF	; 255
  92:	d0 e1       	ldi	r29, 0x10	; 16
  94:	de bf       	out	0x3e, r29	; 62
  96:	cd bf       	out	0x3d, r28	; 61
  98:	02 d0       	rcall	.+4      	; 0x9e <main>
  9a:	5e c0       	rjmp	.+188    	; 0x158 <_exit>

0000009c <__bad_interrupt>:
  9c:	b1 cf       	rjmp	.-158    	; 0x0 <__vectors>

0000009e <main>:
#include <avr/io.h>
#include <util/delay.h>

int main(void)
{
	DDRB = 0xFF;
  9e:	8f ef       	ldi	r24, 0xFF	; 255
  a0:	87 bb       	out	0x17, r24	; 23
	DDRC = 0xFF;
  a2:	84 bb       	out	0x14, r24	; 20
	PORTB = 0xFF;
  a4:	88 bb       	out	0x18, r24	; 24
    while (1) 
    {
		PORTC = 0xA0;
  a6:	70 ea       	ldi	r23, 0xA0	; 160
		_delay_ms (500);
		PORTC = 0x50;
  a8:	60 e5       	ldi	r22, 0x50	; 80
		_delay_ms (500);
		PORTC = 0x28;
  aa:	58 e2       	ldi	r21, 0x28	; 40
		_delay_ms (500);
		PORTC = 0x14;
  ac:	44 e1       	ldi	r20, 0x14	; 20
		_delay_ms (500);
		PORTC = 0x0A;
  ae:	3a e0       	ldi	r19, 0x0A	; 10
		_delay_ms (500);
		PORTC = 0x05;
  b0:	25 e0       	ldi	r18, 0x05	; 5
		_delay_ms (500);
		PORTC = 0x82;
  b2:	92 e8       	ldi	r25, 0x82	; 130
		_delay_ms (500);
		PORTC = 0x41;
  b4:	81 e4       	ldi	r24, 0x41	; 65
	DDRB = 0xFF;
	DDRC = 0xFF;
	PORTB = 0xFF;
    while (1) 
    {
		PORTC = 0xA0;
  b6:	75 bb       	out	0x15, r23	; 21
	#else
		//round up by default
		__ticks_dc = (uint32_t)(ceil(fabs(__tmp)));
	#endif

	__builtin_avr_delay_cycles(__ticks_dc);
  b8:	af ef       	ldi	r26, 0xFF	; 255
  ba:	e9 e6       	ldi	r30, 0x69	; 105
  bc:	f8 e1       	ldi	r31, 0x18	; 24
  be:	a1 50       	subi	r26, 0x01	; 1
  c0:	e0 40       	sbci	r30, 0x00	; 0
  c2:	f0 40       	sbci	r31, 0x00	; 0
  c4:	e1 f7       	brne	.-8      	; 0xbe <main+0x20>
  c6:	00 c0       	rjmp	.+0      	; 0xc8 <main+0x2a>
  c8:	00 00       	nop
		_delay_ms (500);
		PORTC = 0x50;
  ca:	65 bb       	out	0x15, r22	; 21
  cc:	af ef       	ldi	r26, 0xFF	; 255
  ce:	e9 e6       	ldi	r30, 0x69	; 105
  d0:	f8 e1       	ldi	r31, 0x18	; 24
  d2:	a1 50       	subi	r26, 0x01	; 1
  d4:	e0 40       	sbci	r30, 0x00	; 0
  d6:	f0 40       	sbci	r31, 0x00	; 0
  d8:	e1 f7       	brne	.-8      	; 0xd2 <main+0x34>
  da:	00 c0       	rjmp	.+0      	; 0xdc <main+0x3e>
  dc:	00 00       	nop
		_delay_ms (500);
		PORTC = 0x28;
  de:	55 bb       	out	0x15, r21	; 21
  e0:	af ef       	ldi	r26, 0xFF	; 255
  e2:	e9 e6       	ldi	r30, 0x69	; 105
  e4:	f8 e1       	ldi	r31, 0x18	; 24
  e6:	a1 50       	subi	r26, 0x01	; 1
  e8:	e0 40       	sbci	r30, 0x00	; 0
  ea:	f0 40       	sbci	r31, 0x00	; 0
  ec:	e1 f7       	brne	.-8      	; 0xe6 <main+0x48>
  ee:	00 c0       	rjmp	.+0      	; 0xf0 <main+0x52>
  f0:	00 00       	nop
		_delay_ms (500);
		PORTC = 0x14;
  f2:	45 bb       	out	0x15, r20	; 21
  f4:	af ef       	ldi	r26, 0xFF	; 255
  f6:	e9 e6       	ldi	r30, 0x69	; 105
  f8:	f8 e1       	ldi	r31, 0x18	; 24
  fa:	a1 50       	subi	r26, 0x01	; 1
  fc:	e0 40       	sbci	r30, 0x00	; 0
  fe:	f0 40       	sbci	r31, 0x00	; 0
 100:	e1 f7       	brne	.-8      	; 0xfa <main+0x5c>
 102:	00 c0       	rjmp	.+0      	; 0x104 <main+0x66>
 104:	00 00       	nop
		_delay_ms (500);
		PORTC = 0x0A;
 106:	35 bb       	out	0x15, r19	; 21
 108:	af ef       	ldi	r26, 0xFF	; 255
 10a:	e9 e6       	ldi	r30, 0x69	; 105
 10c:	f8 e1       	ldi	r31, 0x18	; 24
 10e:	a1 50       	subi	r26, 0x01	; 1
 110:	e0 40       	sbci	r30, 0x00	; 0
 112:	f0 40       	sbci	r31, 0x00	; 0
 114:	e1 f7       	brne	.-8      	; 0x10e <main+0x70>
 116:	00 c0       	rjmp	.+0      	; 0x118 <main+0x7a>
 118:	00 00       	nop
		_delay_ms (500);
		PORTC = 0x05;
 11a:	25 bb       	out	0x15, r18	; 21
 11c:	af ef       	ldi	r26, 0xFF	; 255
 11e:	e9 e6       	ldi	r30, 0x69	; 105
 120:	f8 e1       	ldi	r31, 0x18	; 24
 122:	a1 50       	subi	r26, 0x01	; 1
 124:	e0 40       	sbci	r30, 0x00	; 0
 126:	f0 40       	sbci	r31, 0x00	; 0
 128:	e1 f7       	brne	.-8      	; 0x122 <main+0x84>
 12a:	00 c0       	rjmp	.+0      	; 0x12c <main+0x8e>
 12c:	00 00       	nop
		_delay_ms (500);
		PORTC = 0x82;
 12e:	95 bb       	out	0x15, r25	; 21
 130:	af ef       	ldi	r26, 0xFF	; 255
 132:	e9 e6       	ldi	r30, 0x69	; 105
 134:	f8 e1       	ldi	r31, 0x18	; 24
 136:	a1 50       	subi	r26, 0x01	; 1
 138:	e0 40       	sbci	r30, 0x00	; 0
 13a:	f0 40       	sbci	r31, 0x00	; 0
 13c:	e1 f7       	brne	.-8      	; 0x136 <main+0x98>
 13e:	00 c0       	rjmp	.+0      	; 0x140 <main+0xa2>
 140:	00 00       	nop
		_delay_ms (500);
		PORTC = 0x41;
 142:	85 bb       	out	0x15, r24	; 21
 144:	af ef       	ldi	r26, 0xFF	; 255
 146:	e9 e6       	ldi	r30, 0x69	; 105
 148:	f8 e1       	ldi	r31, 0x18	; 24
 14a:	a1 50       	subi	r26, 0x01	; 1
 14c:	e0 40       	sbci	r30, 0x00	; 0
 14e:	f0 40       	sbci	r31, 0x00	; 0
 150:	e1 f7       	brne	.-8      	; 0x14a <main+0xac>
 152:	00 c0       	rjmp	.+0      	; 0x154 <main+0xb6>
 154:	00 00       	nop
 156:	af cf       	rjmp	.-162    	; 0xb6 <main+0x18>

00000158 <_exit>:
 158:	f8 94       	cli

0000015a <__stop_program>:
 15a:	ff cf       	rjmp	.-2      	; 0x15a <__stop_program>
